#include <math.h>
#include <stdio.h>
#include <stdlib.h>
#include <string.h>


int main(){

	int sz[100];
	int i,n;
	int e;

	scanf("%d",&n);

	scanf("%d",&sz[0]);

	for(i=1;i<n;i++){
	  scanf(" %d",&sz[i]);
	}

	if(n%2==0){
		for(i=0;i<n/2;i++){
			e=sz[i];
			sz[i]=sz[n-i-1];
			sz[n-1-i]=e;
		}
	}else{

		for(i=0;i<(n-1)/2;i++){
		    e=sz[i];
			sz[i]=sz[n-i-1];
			sz[n-1-i]=e;
		}
	}

    printf("%d",sz[0]);

	for(i=1;i<n;i++){
	  printf(" %d",sz[i]);
	}
	return 0;
}
