; ModuleID = '47/5305.c'
source_filename = "47/5305.c"
target datalayout = "e-m:e-p270:32:32-p271:32:32-p272:64:64-i64:64-f80:128-n8:16:32:64-S128"
target triple = "x86_64-pc-linux-gnu"

@.str = private unnamed_addr constant [3 x i8] c"%d\00", align 1
@.str.1 = private unnamed_addr constant [4 x i8] c" %d\00", align 1

; Function Attrs: noinline nounwind uwtable
define dso_local i32 @main() #0 {
  %1 = alloca i32, align 4
  %2 = alloca [100 x i32], align 16
  %3 = alloca i32, align 4
  %4 = alloca i32, align 4
  %5 = alloca i32, align 4
  store i32 0, i32* %1, align 4
  %6 = call i32 (i8*, ...) @__isoc99_scanf(i8* getelementptr inbounds ([3 x i8], [3 x i8]* @.str, i64 0, i64 0), i32* %4)
  %7 = getelementptr inbounds [100 x i32], [100 x i32]* %2, i64 0, i64 0
  %8 = call i32 (i8*, ...) @__isoc99_scanf(i8* getelementptr inbounds ([3 x i8], [3 x i8]* @.str, i64 0, i64 0), i32* %7)
  store i32 1, i32* %3, align 4
  br label %9

9:                                                ; preds = %18, %0
  %10 = load i32, i32* %3, align 4
  %11 = load i32, i32* %4, align 4
  %12 = icmp slt i32 %10, %11
  br i1 %12, label %13, label %21

13:                                               ; preds = %9
  %14 = load i32, i32* %3, align 4
  %15 = sext i32 %14 to i64
  %16 = getelementptr inbounds [100 x i32], [100 x i32]* %2, i64 0, i64 %15
  %17 = call i32 (i8*, ...) @__isoc99_scanf(i8* getelementptr inbounds ([4 x i8], [4 x i8]* @.str.1, i64 0, i64 0), i32* %16)
  br label %18

18:                                               ; preds = %13
  %19 = load i32, i32* %3, align 4
  %20 = add nsw i32 %19, 1
  store i32 %20, i32* %3, align 4
  br label %9

21:                                               ; preds = %9
  %22 = load i32, i32* %4, align 4
  %23 = srem i32 %22, 2
  %24 = icmp eq i32 %23, 0
  br i1 %24, label %25, label %57

25:                                               ; preds = %21
  store i32 0, i32* %3, align 4
  br label %26

26:                                               ; preds = %53, %25
  %27 = load i32, i32* %3, align 4
  %28 = load i32, i32* %4, align 4
  %29 = sdiv i32 %28, 2
  %30 = icmp slt i32 %27, %29
  br i1 %30, label %31, label %56

31:                                               ; preds = %26
  %32 = load i32, i32* %3, align 4
  %33 = sext i32 %32 to i64
  %34 = getelementptr inbounds [100 x i32], [100 x i32]* %2, i64 0, i64 %33
  %35 = load i32, i32* %34, align 4
  store i32 %35, i32* %5, align 4
  %36 = load i32, i32* %4, align 4
  %37 = load i32, i32* %3, align 4
  %38 = sub nsw i32 %36, %37
  %39 = sub nsw i32 %38, 1
  %40 = sext i32 %39 to i64
  %41 = getelementptr inbounds [100 x i32], [100 x i32]* %2, i64 0, i64 %40
  %42 = load i32, i32* %41, align 4
  %43 = load i32, i32* %3, align 4
  %44 = sext i32 %43 to i64
  %45 = getelementptr inbounds [100 x i32], [100 x i32]* %2, i64 0, i64 %44
  store i32 %42, i32* %45, align 4
  %46 = load i32, i32* %5, align 4
  %47 = load i32, i32* %4, align 4
  %48 = sub nsw i32 %47, 1
  %49 = load i32, i32* %3, align 4
  %50 = sub nsw i32 %48, %49
  %51 = sext i32 %50 to i64
  %52 = getelementptr inbounds [100 x i32], [100 x i32]* %2, i64 0, i64 %51
  store i32 %46, i32* %52, align 4
  br label %53

53:                                               ; preds = %31
  %54 = load i32, i32* %3, align 4
  %55 = add nsw i32 %54, 1
  store i32 %55, i32* %3, align 4
  br label %26

56:                                               ; preds = %26
  br label %90

57:                                               ; preds = %21
  store i32 0, i32* %3, align 4
  br label %58

58:                                               ; preds = %86, %57
  %59 = load i32, i32* %3, align 4
  %60 = load i32, i32* %4, align 4
  %61 = sub nsw i32 %60, 1
  %62 = sdiv i32 %61, 2
  %63 = icmp slt i32 %59, %62
  br i1 %63, label %64, label %89

64:                                               ; preds = %58
  %65 = load i32, i32* %3, align 4
  %66 = sext i32 %65 to i64
  %67 = getelementptr inbounds [100 x i32], [100 x i32]* %2, i64 0, i64 %66
  %68 = load i32, i32* %67, align 4
  store i32 %68, i32* %5, align 4
  %69 = load i32, i32* %4, align 4
  %70 = load i32, i32* %3, align 4
  %71 = sub nsw i32 %69, %70
  %72 = sub nsw i32 %71, 1
  %73 = sext i32 %72 to i64
  %74 = getelementptr inbounds [100 x i32], [100 x i32]* %2, i64 0, i64 %73
  %75 = load i32, i32* %74, align 4
  %76 = load i32, i32* %3, align 4
  %77 = sext i32 %76 to i64
  %78 = getelementptr inbounds [100 x i32], [100 x i32]* %2, i64 0, i64 %77
  store i32 %75, i32* %78, align 4
  %79 = load i32, i32* %5, align 4
  %80 = load i32, i32* %4, align 4
  %81 = sub nsw i32 %80, 1
  %82 = load i32, i32* %3, align 4
  %83 = sub nsw i32 %81, %82
  %84 = sext i32 %83 to i64
  %85 = getelementptr inbounds [100 x i32], [100 x i32]* %2, i64 0, i64 %84
  store i32 %79, i32* %85, align 4
  br label %86

86:                                               ; preds = %64
  %87 = load i32, i32* %3, align 4
  %88 = add nsw i32 %87, 1
  store i32 %88, i32* %3, align 4
  br label %58

89:                                               ; preds = %58
  br label %90

90:                                               ; preds = %89, %56
  %91 = getelementptr inbounds [100 x i32], [100 x i32]* %2, i64 0, i64 0
  %92 = load i32, i32* %91, align 16
  %93 = call i32 (i8*, ...) @printf(i8* getelementptr inbounds ([3 x i8], [3 x i8]* @.str, i64 0, i64 0), i32 %92)
  store i32 1, i32* %3, align 4
  br label %94

94:                                               ; preds = %104, %90
  %95 = load i32, i32* %3, align 4
  %96 = load i32, i32* %4, align 4
  %97 = icmp slt i32 %95, %96
  br i1 %97, label %98, label %107

98:                                               ; preds = %94
  %99 = load i32, i32* %3, align 4
  %100 = sext i32 %99 to i64
  %101 = getelementptr inbounds [100 x i32], [100 x i32]* %2, i64 0, i64 %100
  %102 = load i32, i32* %101, align 4
  %103 = call i32 (i8*, ...) @printf(i8* getelementptr inbounds ([4 x i8], [4 x i8]* @.str.1, i64 0, i64 0), i32 %102)
  br label %104

104:                                              ; preds = %98
  %105 = load i32, i32* %3, align 4
  %106 = add nsw i32 %105, 1
  store i32 %106, i32* %3, align 4
  br label %94

107:                                              ; preds = %94
  ret i32 0
}

declare dso_local i32 @__isoc99_scanf(i8*, ...) #1

declare dso_local i32 @printf(i8*, ...) #1


!llvm.module.flags = !{!0}
!llvm.ident = !{!1}

!0 = !{i32 1, !"wchar_size", i32 4}
!1 = !{!"clang version 10.0.0-4ubuntu1 "}
